target datalayout = "e-m:e-p270:32:32-p271:32:32-p272:64:64-i64:64-i128:128-f80:128-n8:16:32:64-S128"
target triple = "x86_64-pc-linux-gnu"

; Function Attrs: nounwind uwtable
define ptr @Cnf_RunSolverArray(i32 noundef %0, i32 noundef %1, i32 noundef %2) #0 {
  %4 = alloca i32, align 4
  %5 = alloca i32, align 4
  %6 = alloca i32, align 4
  %7 = alloca ptr, align 8
  %8 = alloca i32, align 4
  store i32 %0, ptr %4, align 4, !tbaa !3
  store i32 %1, ptr %5, align 4, !tbaa !3
  store i32 %2, ptr %6, align 4, !tbaa !3
  call void @llvm.lifetime.start.p0(i64 8, ptr %7) #12
  store ptr null, ptr %7, align 8, !tbaa !7
  call void @llvm.lifetime.start.p0(i64 4, ptr %8) #12
  store i32 0, ptr %8, align 4, !tbaa !3
  br label %9

9:                                                ; preds = %21, %3
  %10 = load i32, ptr %8, align 4, !tbaa !3
  %11 = load i32, ptr %4, align 4, !tbaa !3
  %12 = icmp slt i32 %10, %11
  br i1 %12, label %13, label %24

13:                                               ; preds = %9
  %14 = load i32, ptr %8, align 4, !tbaa !3
  %15 = load i32, ptr %5, align 4, !tbaa !3
  %16 = load i32, ptr %6, align 4, !tbaa !3
  %17 = call ptr @Cnf_RunSolverOnce(i32 noundef %14, i32 noundef 0, i32 noundef %15, i32 noundef %16)
  store ptr %17, ptr %7, align 8, !tbaa !7
  %18 = icmp ne ptr %17, null
  br i1 %18, label %19, label %20

19:                                               ; preds = %13
  br label %24

20:                                               ; preds = %13
  br label %21

21:                                               ; preds = %20
  %22 = load i32, ptr %8, align 4, !tbaa !3
  %23 = add nsw i32 %22, 1
  store i32 %23, ptr %8, align 4, !tbaa !3
  br label %9, !llvm.loop !18

24:                                               ; preds = %19, %9
  %25 = load ptr, ptr %7, align 8, !tbaa !7
  call void @llvm.lifetime.end.p0(i64 4, ptr %8) #12
  call void @llvm.lifetime.end.p0(i64 8, ptr %7) #12
  ret ptr %25
}