; Function Attrs: nounwind uwtable
define ptr @Cnf_RunSolverArray(i32 noundef %0, i32 noundef %1, i32 noundef %2) local_unnamed_addr #0 {
  %4 = icmp sgt i32 %0, 0
  br i1 %4, label %.lr.ph, label %._crit_edge

5:                                                ; preds = %.lr.ph
  %6 = add nuw nsw i32 %.09, 1
  %exitcond.not = icmp eq i32 %6, %0
  br i1 %exitcond.not, label %._crit_edge, label %.lr.ph, !llvm.loop !12

.lr.ph:                                           ; preds = %3, %5
  %.09 = phi i32 [ %6, %5 ], [ 0, %3 ]
  %7 = tail call ptr @Cnf_RunSolverOnce(i32 noundef %.09, i32 noundef 0, i32 noundef %1, i32 noundef %2)
  %.not = icmp eq ptr %7, null
  br i1 %.not, label %5, label %._crit_edge

._crit_edge:                                      ; preds = %5, %.lr.ph, %3
  %.1 = phi ptr [ null, %3 ], [ %7, %.lr.ph ], [ null, %5 ]
  ret ptr %.1
}